	.text
	.file	"add_ten.affd3cf1fd86c4f-cgu.0"
	.section	.text._ZN3std10sys_common9backtrace28__rust_begin_short_backtrace17h93832cff871d5aafE,"ax",@progbits
	.p2align	2
	.type	_ZN3std10sys_common9backtrace28__rust_begin_short_backtrace17h93832cff871d5aafE,@function
_ZN3std10sys_common9backtrace28__rust_begin_short_backtrace17h93832cff871d5aafE:
	.cfi_startproc
	str	x30, [sp, #-16]!
	.cfi_def_cfa_offset 16
	.cfi_offset w30, -16
	blr	x0
	//APP
	//NO_APP
	ldr	x30, [sp], #16
	.cfi_def_cfa_offset 0
	.cfi_restore w30
	ret
.Lfunc_end0:
	.size	_ZN3std10sys_common9backtrace28__rust_begin_short_backtrace17h93832cff871d5aafE, .Lfunc_end0-_ZN3std10sys_common9backtrace28__rust_begin_short_backtrace17h93832cff871d5aafE
	.cfi_endproc

	.section	.text._ZN3std2rt10lang_start17h8bee6e7451cb6373E,"ax",@progbits
	.hidden	_ZN3std2rt10lang_start17h8bee6e7451cb6373E
	.globl	_ZN3std2rt10lang_start17h8bee6e7451cb6373E
	.p2align	2
	.type	_ZN3std2rt10lang_start17h8bee6e7451cb6373E,@function
_ZN3std2rt10lang_start17h8bee6e7451cb6373E:
	.cfi_startproc
	stp	x30, x0, [sp, #-16]!
	.cfi_def_cfa_offset 16
	.cfi_offset w30, -16
	mov	w4, w3
	mov	x3, x2
	mov	x2, x1
	adrp	x1, .L__unnamed_1
	add	x1, x1, :lo12:.L__unnamed_1
	add	x0, sp, #8
	bl	_ZN3std2rt19lang_start_internal17hd1ee6171f586dc89E
	ldr	x30, [sp], #16
	.cfi_def_cfa_offset 0
	.cfi_restore w30
	ret
.Lfunc_end1:
	.size	_ZN3std2rt10lang_start17h8bee6e7451cb6373E, .Lfunc_end1-_ZN3std2rt10lang_start17h8bee6e7451cb6373E
	.cfi_endproc

	.section	".text._ZN3std2rt10lang_start28_$u7b$$u7b$closure$u7d$$u7d$17hdad660c94c71ce27E","ax",@progbits
	.p2align	2
	.type	_ZN3std2rt10lang_start28_$u7b$$u7b$closure$u7d$$u7d$17hdad660c94c71ce27E,@function
_ZN3std2rt10lang_start28_$u7b$$u7b$closure$u7d$$u7d$17hdad660c94c71ce27E:
	.cfi_startproc
	str	x30, [sp, #-16]!
	.cfi_def_cfa_offset 16
	.cfi_offset w30, -16
	ldr	x0, [x0]
	bl	_ZN3std10sys_common9backtrace28__rust_begin_short_backtrace17h93832cff871d5aafE
	mov	w0, wzr
	ldr	x30, [sp], #16
	.cfi_def_cfa_offset 0
	.cfi_restore w30
	ret
.Lfunc_end2:
	.size	_ZN3std2rt10lang_start28_$u7b$$u7b$closure$u7d$$u7d$17hdad660c94c71ce27E, .Lfunc_end2-_ZN3std2rt10lang_start28_$u7b$$u7b$closure$u7d$$u7d$17hdad660c94c71ce27E
	.cfi_endproc

	.section	".text._ZN4core3ops8function6FnOnce40call_once$u7b$$u7b$vtable.shim$u7d$$u7d$17hc72475ed83484d9dE","ax",@progbits
	.p2align	2
	.type	_ZN4core3ops8function6FnOnce40call_once$u7b$$u7b$vtable.shim$u7d$$u7d$17hc72475ed83484d9dE,@function
_ZN4core3ops8function6FnOnce40call_once$u7b$$u7b$vtable.shim$u7d$$u7d$17hc72475ed83484d9dE:
	.cfi_startproc
	str	x30, [sp, #-16]!
	.cfi_def_cfa_offset 16
	.cfi_offset w30, -16
	ldr	x0, [x0]
	bl	_ZN3std10sys_common9backtrace28__rust_begin_short_backtrace17h93832cff871d5aafE
	mov	w0, wzr
	ldr	x30, [sp], #16
	.cfi_def_cfa_offset 0
	.cfi_restore w30
	ret
.Lfunc_end3:
	.size	_ZN4core3ops8function6FnOnce40call_once$u7b$$u7b$vtable.shim$u7d$$u7d$17hc72475ed83484d9dE, .Lfunc_end3-_ZN4core3ops8function6FnOnce40call_once$u7b$$u7b$vtable.shim$u7d$$u7d$17hc72475ed83484d9dE
	.cfi_endproc

	.section	".text._ZN4core3ptr85drop_in_place$LT$std..rt..lang_start$LT$$LP$$RP$$GT$..$u7b$$u7b$closure$u7d$$u7d$$GT$17hf764fd8130b0ec20E","ax",@progbits
	.p2align	2
	.type	_ZN4core3ptr85drop_in_place$LT$std..rt..lang_start$LT$$LP$$RP$$GT$..$u7b$$u7b$closure$u7d$$u7d$$GT$17hf764fd8130b0ec20E,@function
_ZN4core3ptr85drop_in_place$LT$std..rt..lang_start$LT$$LP$$RP$$GT$..$u7b$$u7b$closure$u7d$$u7d$$GT$17hf764fd8130b0ec20E:
	.cfi_startproc
	ret
.Lfunc_end4:
	.size	_ZN4core3ptr85drop_in_place$LT$std..rt..lang_start$LT$$LP$$RP$$GT$..$u7b$$u7b$closure$u7d$$u7d$$GT$17hf764fd8130b0ec20E, .Lfunc_end4-_ZN4core3ptr85drop_in_place$LT$std..rt..lang_start$LT$$LP$$RP$$GT$..$u7b$$u7b$closure$u7d$$u7d$$GT$17hf764fd8130b0ec20E
	.cfi_endproc

	.section	.text._ZN7add_ten4main17h951ac70448cb6ceaE,"ax",@progbits
	.p2align	2
	.type	_ZN7add_ten4main17h951ac70448cb6ceaE,@function
_ZN7add_ten4main17h951ac70448cb6ceaE:
	.cfi_startproc
	sub	sp, sp, #80
	.cfi_def_cfa_offset 80
	str	x30, [sp, #64]
	.cfi_offset w30, -16
	adrp	x10, :got:_ZN4core3fmt3num3imp52_$LT$impl$u20$core..fmt..Display$u20$for$u20$i32$GT$3fmt17h3085d13a887d5006E
	mov	w8, #30
	add	x9, sp, #76
	mov	x0, sp
	ldr	x10, [x10, :got_lo12:_ZN4core3fmt3num3imp52_$LT$impl$u20$core..fmt..Display$u20$for$u20$i32$GT$3fmt17h3085d13a887d5006E]
	str	w8, [sp, #76]
	mov	w8, #2
	stp	x9, x10, [sp, #48]
	adrp	x9, .L__unnamed_2
	add	x9, x9, :lo12:.L__unnamed_2
	add	x10, sp, #48
	stp	x9, x8, [sp]
	mov	w8, #1
	str	x10, [sp, #16]
	stp	x8, xzr, [sp, #24]
	bl	_ZN3std2io5stdio6_print17h138f95179bc356cdE
	ldr	x30, [sp, #64]
	add	sp, sp, #80
	.cfi_def_cfa_offset 0
	.cfi_restore w30
	ret
.Lfunc_end5:
	.size	_ZN7add_ten4main17h951ac70448cb6ceaE, .Lfunc_end5-_ZN7add_ten4main17h951ac70448cb6ceaE
	.cfi_endproc

	.section	.text.main,"ax",@progbits
	.globl	main
	.p2align	2
	.type	main,@function
main:
	.cfi_startproc
	str	x30, [sp, #-16]!
	.cfi_def_cfa_offset 16
	.cfi_offset w30, -16
	mov	x2, x1
	sxtw	x1, w0
	adrp	x0, _ZN7add_ten4main17h951ac70448cb6ceaE
	add	x0, x0, :lo12:_ZN7add_ten4main17h951ac70448cb6ceaE
	mov	w3, wzr
	bl	_ZN3std2rt10lang_start17h8bee6e7451cb6373E
	ldr	x30, [sp], #16
	ret
.Lfunc_end6:
	.size	main, .Lfunc_end6-main
	.cfi_endproc

	.type	.L__unnamed_1,@object
	.section	.data.rel.ro..L__unnamed_1,"aw",@progbits
	.p2align	3, 0x0
.L__unnamed_1:
	.xword	_ZN4core3ptr85drop_in_place$LT$std..rt..lang_start$LT$$LP$$RP$$GT$..$u7b$$u7b$closure$u7d$$u7d$$GT$17hf764fd8130b0ec20E
	.asciz	"\b\000\000\000\000\000\000\000\b\000\000\000\000\000\000"
	.xword	_ZN4core3ops8function6FnOnce40call_once$u7b$$u7b$vtable.shim$u7d$$u7d$17hc72475ed83484d9dE
	.xword	_ZN3std2rt10lang_start28_$u7b$$u7b$closure$u7d$$u7d$17hdad660c94c71ce27E
	.xword	_ZN3std2rt10lang_start28_$u7b$$u7b$closure$u7d$$u7d$17hdad660c94c71ce27E
	.size	.L__unnamed_1, 48

	.type	.L__unnamed_3,@object
	.section	.rodata..L__unnamed_3,"a",@progbits
.L__unnamed_3:
	.ascii	"v: "
	.size	.L__unnamed_3, 3

	.type	.L__unnamed_4,@object
	.section	.rodata..L__unnamed_4,"a",@progbits
.L__unnamed_4:
	.byte	10
	.size	.L__unnamed_4, 1

	.type	.L__unnamed_2,@object
	.section	.data.rel.ro..L__unnamed_2,"aw",@progbits
	.p2align	3, 0x0
.L__unnamed_2:
	.xword	.L__unnamed_3
	.asciz	"\003\000\000\000\000\000\000"
	.xword	.L__unnamed_4
	.asciz	"\001\000\000\000\000\000\000"
	.size	.L__unnamed_2, 32

	.ident	"rustc version 1.75.0 (82e1608df 2023-12-21)"
	.section	".note.GNU-stack","",@progbits
